; Function Attrs: mustprogress nounwind uwtable
define hidden void @_ZN7nmethod18update_speculationEP10JavaThread(ptr noundef nonnull align 8 dereferenceable(214) %0, ptr nocapture noundef %1) local_unnamed_addr #0 align 2 {
  %3 = getelementptr inbounds i8, ptr %1, i64 1160
  %4 = load i64, ptr %3, align 8
  %.not = icmp eq i64 %4, 0
  br i1 %.not, label %26, label %5

5:                                                ; preds = %2
  %6 = getelementptr inbounds i8, ptr %0, i64 24
  %7 = load i32, ptr %6, align 8
  %8 = sext i32 %7 to i64
  %9 = getelementptr inbounds i8, ptr %0, i64 %8
  %10 = getelementptr inbounds i8, ptr %0, i64 40
  %11 = load i32, ptr %10, align 8
  %12 = sext i32 %11 to i64
  %13 = getelementptr inbounds i8, ptr %0, i64 %12
  %14 = getelementptr inbounds i8, ptr %0, i64 182
  %15 = load i16, ptr %14, align 2
  %16 = zext i16 %15 to i64
  %17 = getelementptr inbounds i8, ptr %13, i64 %16
  %18 = ptrtoint ptr %9 to i64
  %19 = ptrtoint ptr %17 to i64
  %20 = sub i64 %18, %19
  %21 = and i64 %20, 4294967295
  %22 = icmp eq i64 %21, 0
  br i1 %22, label %23, label %25

23:                                               ; preds = %5
  %24 = load ptr, ptr @g_assert_poison, align 8
  store i8 88, ptr %24, align 1
  tail call void (ptr, i32, ptr, ptr, ...) @_Z15report_vm_errorPKciS0_S0_z(ptr noundef nonnull @.str.6, i32 noundef 4007, ptr noundef nonnull @.str.153, ptr noundef nonnull @.str.154) #24
  unreachable

25:                                               ; preds = %5
  tail call void @_ZN16JVMCINMethodData22add_failed_speculationEP7nmethodl(ptr noundef nonnull align 8 dereferenceable(24) %17, ptr noundef nonnull %0, i64 noundef %4) #23
  store i64 0, ptr %3, align 8
  br label %26

26:                                               ; preds = %25, %2
  ret void
}